
Certificate:
    Data:
        Version: 3 (0x2)
        Serial Number:
            d7:3c:7f:7b:31:48:28:66
        Signature Algorithm: ecdsa-with-SHA256
        Issuer: O=SunSpec Alliance, CN=Test IEEE 2030.5 Root/serialNumber=1
        Validity
            Not Before: Mar 19 23:04:28 2018 GMT
            Not After : Dec 31 23:59:59 9999 GMT
        Subject: O=SunSpec Alliance, CN=Test IEEE 2030.5 Root/serialNumber=1
        Subject Public Key Info:
            Public Key Algorithm: id-ecPublicKey
                Public-Key: (256 bit)
                pub:
                    04:82:a6:3b:f8:0b:d3:b7:32:57:e3:fb:1b:9f:e7:
                    82:f0:23:80:9b:6a:eb:33:1c:2f:76:b7:46:ea:51:
                    15:be:fa:d0:2a:d9:71:f7:d9:e2:94:5b:9e:b0:ff:
                    1c:a0:73:e8:d3:83:20:d4:b6:87:6c:3f:f4:94:ab:
                    ad:46:41:1b:d7
                ASN1 OID: prime256v1
                NIST CURVE: P-256
        X509v3 extensions:
            X509v3 Basic Constraints: critical
                CA:TRUE
            X509v3 Key Usage: critical
                Digital Signature, Certificate Sign, CRL Sign
            X509v3 Subject Key Identifier: 
                4E:BF:26:E3:2F:7D:03:1E
            X509v3 Certificate Policies: critical
                Policy: X509v3 Any Policy

    Signature Algorithm: ecdsa-with-SHA256
    Signature Value:
         30:44:02:20:5d:66:7e:87:0c:55:e5:dc:7e:23:c6:74:fe:48:
         d2:45:8d:4c:55:85:0a:7e:04:ef:dd:fe:7e:07:ee:70:54:37:
         02:20:69:83:6b:55:01:03:42:31:c5:e0:83:30:91:ba:7e:21:
         b4:8e:1f:fb:3b:35:9e:af:54:27:0f:6a:08:7d:fe:4a

-----BEGIN CERTIFICATE-----
MIIB0jCCAXmgAwIBAgIJANc8f3sxSChmMAoGCCqGSM49BAMCMEcxGTAXBgNVBAoM
EFN1blNwZWMgQWxsaWFuY2UxHjAcBgNVBAMMFVRlc3QgSUVFRSAyMDMwLjUgUm9v
dDEKMAgGA1UEBRMBMTAgFw0xODAzMTkyMzA0MjhaGA85OTk5MTIzMTIzNTk1OVow
RzEZMBcGA1UECgwQU3VuU3BlYyBBbGxpYW5jZTEeMBwGA1UEAwwVVGVzdCBJRUVF
IDIwMzAuNSBSb290MQowCAYDVQQFEwExMFkwEwYHKoZIzj0CAQYIKoZIzj0DAQcD
QgAEgqY7+AvTtzJX4/sbn+eC8COAm2rrMxwvdrdG6lEVvvrQKtlx99nilFuesP8c
oHPo04Mg1LaHbD/0lKutRkEb16NMMEowDwYDVR0TAQH/BAUwAwEB/zAOBgNVHQ8B
Af8EBAMCAYYwEQYDVR0OBAoECE6/JuMvfQMeMBQGA1UdIAEB/wQKMAgwBgYEVR0g
ADAKBggqhkjOPQQDAgNHADBEAiBdZn6HDFXl3H4jxnT+SNJFjUxVhQp+BO/d/n4H
7nBUNwIgaYNrVQEDQjHF4IMwkbp+IbSOH/s7NZ6vVCcPagh9/ko=
-----END CERTIFICATE-----
