
Certificate:
    Data:
        Version: 3 (0x2)
        Serial Number:
            4a:66:28:35:57:a9:e8:46:c6:db
        Signature Algorithm: ecdsa-with-SHA256
        Issuer: O=SunSpec Alliance, CN=Test IEEE 2030.5 Root/serialNumber=1
        Validity
            Not Before: Nov  8 14:46:48 2023 GMT
            Not After : Dec 31 23:59:59 9999 GMT
        Subject: 
        Subject Public Key Info:
            Public Key Algorithm: id-ecPublicKey
                Public-Key: (256 bit)
                pub:
                    04:62:dd:3d:9f:7d:0a:f1:4a:0a:7a:d9:a0:f4:84:
                    8b:7a:8c:b2:60:04:72:e0:0f:a9:35:91:70:be:3d:
                    68:a8:65:94:bb:45:bc:54:32:d3:52:91:e6:63:39:
                    c6:60:a3:38:b9:d5:d1:3b:62:af:a5:fc:dc:ff:97:
                    4b:13:23:61:aa
                ASN1 OID: prime256v1
                NIST CURVE: P-256
        X509v3 extensions:
            X509v3 Authority Key Identifier: 
                keyid:4E:BF:26:E3:2F:7D:03:1E

            X509v3 Key Usage: critical
                Digital Signature, Key Agreement
            X509v3 Certificate Policies: critical
                Policy: id-IEEE-2030.5-dev-genericIEEE-2030.5Device
                Policy: id-IEEE-2030.5-po-device-auth-test
                Policy: id-IEEE-2030.5-po-bulk-cert

            X509v3 Subject Alternative Name: critical
                othername: hwType=1.3.6.1.4.1.38947.13.1.1, hwSerialNum=12345678910
    Signature Algorithm: ecdsa-with-SHA256
         30:45:02:20:56:e7:2e:0f:85:d9:8a:1a:21:87:b1:72:99:5b:
         f1:d2:27:21:b0:4c:39:c4:0e:d8:56:8d:e3:72:dc:a8:df:b9:
         02:21:00:d5:5a:c3:c9:da:3b:eb:6f:8c:65:e6:2d:60:be:83:
         59:f6:85:81:d1:09:03:0a:a2:1e:71:92:95:55:6f:2a:5a

-----BEGIN CERTIFICATE-----
MIIB2jCCAYCgAwIBAgIKSmYoNVep6EbG2zAKBggqhkjOPQQDAjBHMRkwFwYDVQQK
DBBTdW5TcGVjIEFsbGlhbmNlMR4wHAYDVQQDDBVUZXN0IElFRUUgMjAzMC41IFJv
b3QxCjAIBgNVBAUTATEwIBcNMjMxMTA4MTQ0NjQ4WhgPOTk5OTEyMzEyMzU5NTla
MAAwWTATBgcqhkjOPQIBBggqhkjOPQMBBwNCAARi3T2ffQrxSgp62aD0hIt6jLJg
BHLgD6k1kXC+PWioZZS7RbxUMtNSkeZjOcZgozi51dE7Yq+l/Nz/l0sTI2Gqo4GY
MIGVMBMGA1UdIwQMMAqACE6/JuMvfQMeMA4GA1UdDwEB/wQEAwIDiDA2BgNVHSAB
Af8ELDAqMAwGCisGAQQBgr4cAQEwDAYKKwYBBAGCvhwCATAMBgorBgEEAYK+HAIE
MDYGA1UdEQEB/wQsMCqgKAYIKwYBBQUHCASgHDAaBgsrBgEEAYKwIw0BAQQLMTIz
NDU2Nzg5MTAwCgYIKoZIzj0EAwIDSAAwRQIgVucuD4XZihohh7FymVvx0ichsEw5
xA7YVo3jctyo37kCIQDVWsPJ2jvrb4xl5i1gvoNZ9oWB0QkDCqIecZKVVW8qWg==
-----END CERTIFICATE-----
