Certificate:
    Data:
        Version: 1 (0x0)
        Serial Number: 1 (0x1)
        Signature Algorithm: ecdsa-with-SHA256
        Issuer: C=US, CN=ca
        Validity
            Not Before: Nov 29 08:23:46 2023 GMT
            Not After : Nov 28 08:23:46 2024 GMT
        Subject: C=US, CN=0.0.0.0
        Subject Public Key Info:
            Public Key Algorithm: id-ecPublicKey
                Public-Key: (256 bit)
                pub:
                    04:02:74:9d:38:eb:2e:35:ec:98:fb:4a:37:54:69:
                    82:21:90:70:38:2c:15:40:d9:f2:c5:4e:87:d4:74:
                    49:7f:ac:12:ed:88:00:e0:ba:ac:ef:1a:ac:15:57:
                    b3:a6:eb:56:38:21:80:be:43:2f:ac:8c:17:6c:fd:
                    3d:42:3e:be:94
                ASN1 OID: prime256v1
                NIST CURVE: P-256
    Signature Algorithm: ecdsa-with-SHA256
    Signature Value:
        30:45:02:20:1b:c7:14:86:08:0b:20:e4:45:cc:ee:60:17:15:
        7e:ea:73:72:67:3a:5a:50:d1:6f:c5:42:57:77:5e:3e:10:d9:
        02:21:00:de:e1:83:55:58:4f:58:0b:12:f1:6a:c3:9b:00:13:
        5d:2c:99:2a:71:82:1f:0d:f7:46:52:da:03:54:59:fa:53
-----BEGIN CERTIFICATE-----
MIIBIDCBxwIBATAKBggqhkjOPQQDAjAaMQswCQYDVQQGEwJVUzELMAkGA1UEAwwC
Y2EwHhcNMjMxMTI5MDgyMzQ2WhcNMjQxMTI4MDgyMzQ2WjAfMQswCQYDVQQGEwJV
UzEQMA4GA1UEAwwHMC4wLjAuMDBZMBMGByqGSM49AgEGCCqGSM49AwEHA0IABAJ0
nTjrLjXsmPtKN1RpgiGQcDgsFUDZ8sVOh9R0SX+sEu2IAOC6rO8arBVXs6brVjgh
gL5DL6yMF2z9PUI+vpQwCgYIKoZIzj0EAwIDSAAwRQIgG8cUhggLIORFzO5gFxV+
6nNyZzpaUNFvxUJXd14+ENkCIQDe4YNVWE9YCxLxasObABNdLJkqcYIfDfdGUtoD
VFn6Uw==
-----END CERTIFICATE-----
