Certificate:
    Data:
        Version: 1 (0x0)
        Serial Number: 2 (0x2)
        Signature Algorithm: ecdsa-with-SHA256
        Issuer: C=US, CN=ca
        Validity
            Not Before: Nov 29 08:23:46 2023 GMT
            Not After : Nov 28 08:23:46 2024 GMT
        Subject: C=US, CN=admin
        Subject Public Key Info:
            Public Key Algorithm: id-ecPublicKey
                Public-Key: (256 bit)
                pub:
                    04:3f:54:15:1a:6a:e7:24:72:f4:b1:4e:e4:b4:21:
                    b4:c9:dc:d1:79:7b:da:e4:fc:0d:45:d7:c7:b7:07:
                    66:c8:25:a5:e6:ea:8c:df:1f:1b:a9:f9:97:a0:9a:
                    c6:7e:df:10:16:93:43:d4:8f:81:d4:05:95:af:fb:
                    77:95:a8:6f:78
                ASN1 OID: prime256v1
                NIST CURVE: P-256
    Signature Algorithm: ecdsa-with-SHA256
    Signature Value:
        30:45:02:21:00:b9:62:3f:3c:e9:67:27:4b:81:0f:99:28:ec:
        9e:ad:f6:38:61:e8:cf:3e:82:d0:f4:6e:f5:1a:aa:89:49:63:
        06:02:20:2c:e3:83:ad:08:6a:41:04:fe:75:32:a0:f0:26:64:
        20:2f:de:5b:3e:17:2b:2d:20:ea:69:62:2c:4f:be:36:3a
-----BEGIN CERTIFICATE-----
MIIBHjCBxQIBAjAKBggqhkjOPQQDAjAaMQswCQYDVQQGEwJVUzELMAkGA1UEAwwC
Y2EwHhcNMjMxMTI5MDgyMzQ2WhcNMjQxMTI4MDgyMzQ2WjAdMQswCQYDVQQGEwJV
UzEOMAwGA1UEAwwFYWRtaW4wWTATBgcqhkjOPQIBBggqhkjOPQMBBwNCAAQ/VBUa
auckcvSxTuS0IbTJ3NF5e9rk/A1F18e3B2bIJaXm6ozfHxup+ZegmsZ+3xAWk0PU
j4HUBZWv+3eVqG94MAoGCCqGSM49BAMCA0gAMEUCIQC5Yj886WcnS4EPmSjsnq32
OGHozz6C0PRu9RqqiUljBgIgLOODrQhqQQT+dTKg8CZkIC/eWz4XKy0g6mliLE++
Njo=
-----END CERTIFICATE-----
