Certificate:
    Data:
        Version: 1 (0x0)
        Serial Number: 3 (0x3)
        Signature Algorithm: ecdsa-with-SHA256
        Issuer: C=US, CN=ca
        Validity
            Not Before: Nov 29 08:23:47 2023 GMT
            Not After : Nov 28 08:23:47 2024 GMT
        Subject: C=US, CN=dev1
        Subject Public Key Info:
            Public Key Algorithm: id-ecPublicKey
                Public-Key: (256 bit)
                pub:
                    04:cd:a3:6f:ac:a4:70:7f:f0:ec:49:ac:29:c3:cd:
                    8e:5a:28:43:ee:84:0f:53:ea:65:ef:01:d5:7b:57:
                    22:d2:f0:ed:9d:74:c5:d6:b8:cf:2e:c1:31:a8:61:
                    46:8d:83:a0:30:09:11:8d:5e:04:67:9f:68:d1:b4:
                    28:8a:50:da:d3
                ASN1 OID: prime256v1
                NIST CURVE: P-256
    Signature Algorithm: ecdsa-with-SHA256
    Signature Value:
        30:45:02:21:00:bd:62:59:6b:18:f1:ee:c9:82:65:cd:4f:bd:
        5a:13:80:59:96:6b:e1:19:4a:29:ad:de:79:f6:66:1d:8d:73:
        b7:02:20:72:62:6b:84:dd:5d:36:bb:08:62:b7:69:81:17:20:
        79:69:63:2f:7b:69:64:d9:e3:cc:6a:60:76:48:1b:c3:71
-----BEGIN CERTIFICATE-----
MIIBHTCBxAIBAzAKBggqhkjOPQQDAjAaMQswCQYDVQQGEwJVUzELMAkGA1UEAwwC
Y2EwHhcNMjMxMTI5MDgyMzQ3WhcNMjQxMTI4MDgyMzQ3WjAcMQswCQYDVQQGEwJV
UzENMAsGA1UEAwwEZGV2MTBZMBMGByqGSM49AgEGCCqGSM49AwEHA0IABM2jb6yk
cH/w7EmsKcPNjlooQ+6ED1PqZe8B1XtXItLw7Z10xda4zy7BMahhRo2DoDAJEY1e
BGefaNG0KIpQ2tMwCgYIKoZIzj0EAwIDSAAwRQIhAL1iWWsY8e7JgmXNT71aE4BZ
lmvhGUoprd559mYdjXO3AiByYmuE3V02uwhit2mBFyB5aWMve2lk2ePMamB2SBvD
cQ==
-----END CERTIFICATE-----
