Certificate:
    Data:
        Version: 1 (0x0)
        Serial Number: 4 (0x4)
        Signature Algorithm: ecdsa-with-SHA256
        Issuer: C=US, CN=ca
        Validity
            Not Before: Nov 29 08:23:48 2023 GMT
            Not After : Nov 28 08:23:48 2024 GMT
        Subject: C=US, CN=dev2
        Subject Public Key Info:
            Public Key Algorithm: id-ecPublicKey
                Public-Key: (256 bit)
                pub:
                    04:b9:4c:11:7c:ef:b7:8f:1d:8c:3a:1f:9a:ce:bc:
                    7c:2a:cc:46:17:17:f0:67:c3:18:e0:62:c9:ed:63:
                    cc:b0:a5:ac:2c:44:06:e6:f7:d2:51:8d:3a:e5:b4:
                    e3:a2:9d:9e:87:42:ae:bb:1b:71:ad:96:93:7d:06:
                    8c:76:fb:80:72
                ASN1 OID: prime256v1
                NIST CURVE: P-256
    Signature Algorithm: ecdsa-with-SHA256
    Signature Value:
        30:45:02:21:00:85:ec:d6:f4:e8:c1:c1:bc:1a:a3:cd:87:ed:
        dc:e6:4e:76:2b:d0:33:48:1a:c8:16:ce:00:0a:30:05:56:72:
        06:02:20:0c:21:93:44:98:83:1b:b6:fb:9b:af:54:c6:1d:5b:
        52:fa:0f:00:3f:43:2e:43:db:58:ba:a0:d9:be:0d:02:97
-----BEGIN CERTIFICATE-----
MIIBHTCBxAIBBDAKBggqhkjOPQQDAjAaMQswCQYDVQQGEwJVUzELMAkGA1UEAwwC
Y2EwHhcNMjMxMTI5MDgyMzQ4WhcNMjQxMTI4MDgyMzQ4WjAcMQswCQYDVQQGEwJV
UzENMAsGA1UEAwwEZGV2MjBZMBMGByqGSM49AgEGCCqGSM49AwEHA0IABLlMEXzv
t48djDofms68fCrMRhcX8GfDGOBiye1jzLClrCxEBub30lGNOuW046KdnodCrrsb
ca2Wk30GjHb7gHIwCgYIKoZIzj0EAwIDSAAwRQIhAIXs1vTowcG8GqPNh+3c5k52
K9AzSBrIFs4ACjAFVnIGAiAMIZNEmIMbtvubr1TGHVtS+g8AP0MuQ9tYuqDZvg0C
lw==
-----END CERTIFICATE-----
